; Function Attrs: nounwind uwtable
define i64 @l_List_foldl___at___private_Lean_Compiler_LCNF_DeclHash_0__Lean_Compiler_LCNF_hashDecl____x40_Lean_Compiler_LCNF_DeclHash___hyg_319____spec__1(i64 noundef %0, ptr noundef %1) local_unnamed_addr #0 {
  br label %3

3:                                                ; preds = %14, %2
  %.08 = phi ptr [ %1, %2 ], [ %18, %14 ]
  %.0 = phi i64 [ %0, %2 ], [ %20, %14 ]
  %4 = ptrtoint ptr %.08 to i64
  %5 = and i64 %4, 1
  %.not.i = icmp eq i64 %5, 0
  br i1 %.not.i, label %9, label %6

6:                                                ; preds = %3
  %7 = lshr i64 %4, 1
  %8 = trunc i64 %7 to i32
  br label %lean_obj_tag.exit

9:                                                ; preds = %3
  %10 = getelementptr i8, ptr %.08, i64 4
  %.val.i = load i32, ptr %10, align 4
  %11 = lshr i32 %.val.i, 24
  br label %lean_obj_tag.exit

lean_obj_tag.exit:                                ; preds = %6, %9
  %.0.i = phi i32 [ %8, %6 ], [ %11, %9 ]
  %12 = icmp eq i32 %.0.i, 0
  br i1 %12, label %13, label %14

13:                                               ; preds = %lean_obj_tag.exit
  ret i64 %.0

14:                                               ; preds = %lean_obj_tag.exit
  %15 = getelementptr inbounds nuw i8, ptr %.08, i64 8
  %16 = load ptr, ptr %15, align 8, !tbaa !4
  %17 = getelementptr inbounds nuw i8, ptr %.08, i64 16
  %18 = load ptr, ptr %17, align 8, !tbaa !4
  %19 = tail call i64 @l_Lean_Name_hash___override(ptr noundef %16) #3
  %20 = tail call i64 @lean_uint64_mix_hash(i64 noundef %.0, i64 noundef %19) #3
  br label %3
}